target datalayout = "e-m:e-p270:32:32-p271:32:32-p272:64:64-i64:64-i128:128-f80:128-n8:16:32:64-S128"
target triple = "x86_64-pc-linux-gnu"

%struct.DNS_entry = type { ptr, i32, i32, ptr }

; Function Attrs: nounwind uwtable
define void @FreeAltNames(ptr noundef %0, ptr noundef %1) #0 {
  %3 = alloca ptr, align 8
  %4 = alloca ptr, align 8
  %5 = alloca ptr, align 8
  %6 = alloca ptr, align 8
  %7 = alloca ptr, align 8
  store ptr %0, ptr %3, align 8, !tbaa !111
  store ptr %1, ptr %4, align 8, !tbaa !64
  br label %8

8:                                                ; preds = %34, %2
  %9 = load ptr, ptr %3, align 8, !tbaa !111
  %10 = icmp ne ptr %9, null
  br i1 %10, label %11, label %36

11:                                               ; preds = %8
  call void @llvm.lifetime.start.p0(i64 8, ptr %5) #9
  %12 = load ptr, ptr %3, align 8, !tbaa !111
  %13 = getelementptr inbounds nuw %struct.DNS_entry, ptr %12, i32 0, i32 0
  %14 = load ptr, ptr %13, align 8, !tbaa !112
  store ptr %14, ptr %5, align 8, !tbaa !111
  br label %15

15:                                               ; preds = %11
  call void @llvm.lifetime.start.p0(i64 8, ptr %6) #9
  %16 = load ptr, ptr %3, align 8, !tbaa !111
  %17 = getelementptr inbounds nuw %struct.DNS_entry, ptr %16, i32 0, i32 3
  %18 = load ptr, ptr %17, align 8, !tbaa !114
  store ptr %18, ptr %6, align 8, !tbaa !64
  %19 = load ptr, ptr %6, align 8, !tbaa !64
  %20 = icmp ne ptr %19, null
  br i1 %20, label %21, label %23

21:                                               ; preds = %15
  %22 = load ptr, ptr %6, align 8, !tbaa !64
  call void @wolfSSL_Free(ptr noundef %22)
  br label %23

23:                                               ; preds = %21, %15
  call void @llvm.lifetime.end.p0(i64 8, ptr %6) #9
  br label %24

24:                                               ; preds = %23
  br label %25

25:                                               ; preds = %24
  br label %26

26:                                               ; preds = %25
  call void @llvm.lifetime.start.p0(i64 8, ptr %7) #9
  %27 = load ptr, ptr %3, align 8, !tbaa !111
  store ptr %27, ptr %7, align 8, !tbaa !64
  %28 = load ptr, ptr %7, align 8, !tbaa !64
  %29 = icmp ne ptr %28, null
  br i1 %29, label %30, label %32

30:                                               ; preds = %26
  %31 = load ptr, ptr %7, align 8, !tbaa !64
  call void @wolfSSL_Free(ptr noundef %31)
  br label %32

32:                                               ; preds = %30, %26
  call void @llvm.lifetime.end.p0(i64 8, ptr %7) #9
  br label %33

33:                                               ; preds = %32
  br label %34

34:                                               ; preds = %33
  %35 = load ptr, ptr %5, align 8, !tbaa !111
  store ptr %35, ptr %3, align 8, !tbaa !111
  call void @llvm.lifetime.end.p0(i64 8, ptr %5) #9
  br label %8, !llvm.loop !115

36:                                               ; preds = %8
  ret void
}