; Function Attrs: nounwind uwtable
define void @FreeAltNames(ptr noundef %0, ptr noundef readnone captures(none) %1) local_unnamed_addr #2 {
  %.not11 = icmp eq ptr %0, null
  br i1 %.not11, label %._crit_edge, label %.lr.ph

.lr.ph:                                           ; preds = %2, %7
  %.012 = phi ptr [ %3, %7 ], [ %0, %2 ]
  %3 = load ptr, ptr %.012, align 8, !tbaa !83
  %4 = getelementptr inbounds nuw i8, ptr %.012, i64 16
  %5 = load ptr, ptr %4, align 8, !tbaa !85
  %.not10 = icmp eq ptr %5, null
  br i1 %.not10, label %7, label %6

6:                                                ; preds = %.lr.ph
  tail call void @wolfSSL_Free(ptr noundef nonnull %5) #22
  br label %7

7:                                                ; preds = %.lr.ph, %6
  tail call void @wolfSSL_Free(ptr noundef nonnull %.012) #22
  %.not = icmp eq ptr %3, null
  br i1 %.not, label %._crit_edge, label %.lr.ph, !llvm.loop !86

._crit_edge:                                      ; preds = %7, %2
  ret void
}